; Function Attrs: nofree norecurse nosync nounwind memory(read, argmem: readwrite, inaccessiblemem: none) uwtable
define i64 @HUFv07_decompress4X_hufOnly(ptr noundef %0, ptr noundef %1, i64 noundef %2, ptr noundef %3, i64 noundef %4) local_unnamed_addr #12 {
  %6 = icmp eq i64 %2, 0
  br i1 %6, label %HUFv07_decompress4X4_DCtx.exit, label %7

7:                                                ; preds = %5
  %8 = icmp uge i64 %4, %2
  %9 = icmp ult i64 %4, 2
  %or.cond = or i1 %8, %9
  br i1 %or.cond, label %HUFv07_decompress4X4_DCtx.exit, label %10

10:                                               ; preds = %7
  %11 = shl i64 %4, 4
  %12 = udiv i64 %11, %2
  %13 = lshr i64 %2, 8
  %14 = trunc i64 %13 to i32
  %15 = and i64 %12, 4294967295
  %16 = getelementptr inbounds nuw [16 x [3 x %struct.algo_time_t]], ptr @algoTime, i64 0, i64 %15
  %17 = load i32, ptr %16, align 8, !tbaa !58
  %18 = getelementptr inbounds nuw i8, ptr %16, i64 4
  %19 = load i32, ptr %18, align 4, !tbaa !60
  %20 = mul i32 %19, %14
  %21 = add i32 %20, %17
  %22 = getelementptr inbounds nuw i8, ptr %16, i64 8
  %23 = load i32, ptr %22, align 8, !tbaa !58
  %24 = getelementptr inbounds nuw i8, ptr %16, i64 12
  %25 = load i32, ptr %24, align 4, !tbaa !60
  %26 = mul i32 %25, %14
  %27 = add i32 %26, %23
  %28 = lshr i32 %27, 3
  %29 = add i32 %28, %27
  %.not = icmp ult i32 %29, %21
  br i1 %.not, label %30, label %38

30:                                               ; preds = %10
  %31 = tail call i64 @HUFv07_readDTableX4(ptr noundef %0, ptr noundef %3, i64 noundef %4)
  %32 = icmp ult i64 %31, -119
  br i1 %32, label %33, label %HUFv07_decompress4X4_DCtx.exit

33:                                               ; preds = %30
  %.not19.i = icmp ult i64 %31, %4
  br i1 %.not19.i, label %34, label %HUFv07_decompress4X4_DCtx.exit

34:                                               ; preds = %33
  %35 = getelementptr inbounds nuw i8, ptr %3, i64 %31
  %36 = sub nuw i64 %4, %31
  %37 = tail call fastcc i64 @HUFv07_decompress4X4_usingDTable_internal(ptr noundef %1, i64 noundef %2, ptr noundef nonnull %35, i64 noundef %36, ptr noundef %0)
  br label %HUFv07_decompress4X4_DCtx.exit

38:                                               ; preds = %10
  %39 = tail call i64 @HUFv07_readDTableX2(ptr noundef %0, ptr noundef %3, i64 noundef %4)
  %40 = icmp ult i64 %39, -119
  br i1 %40, label %41, label %HUFv07_decompress4X4_DCtx.exit

41:                                               ; preds = %38
  %.not19.i21 = icmp ult i64 %39, %4
  br i1 %.not19.i21, label %42, label %HUFv07_decompress4X4_DCtx.exit

42:                                               ; preds = %41
  %43 = getelementptr inbounds nuw i8, ptr %3, i64 %39
  %44 = sub nuw i64 %4, %39
  %45 = tail call fastcc i64 @HUFv07_decompress4X2_usingDTable_internal(ptr noundef %1, i64 noundef %2, ptr noundef nonnull %43, i64 noundef %44, ptr noundef %0)
  br label %HUFv07_decompress4X4_DCtx.exit

HUFv07_decompress4X4_DCtx.exit:                   ; preds = %42, %41, %38, %34, %33, %30, %7, %5
  %.0 = phi i64 [ -70, %5 ], [ -20, %7 ], [ %37, %34 ], [ %31, %30 ], [ -72, %33 ], [ %45, %42 ], [ %39, %38 ], [ -72, %41 ]
  ret i64 %.0
}